; Function Attrs: mustprogress uwtable
define dso_local void @_ZN12cmCryptoHash10HashStringB5cxx11ESt17basic_string_viewIcSt11char_traitsIcEE(ptr dead_on_unwind noalias writable sret(%"class.std::__cxx11::basic_string") align 8 %0, ptr noundef nonnull readonly align 8 captures(none) dereferenceable(16) %1, i64 %2, ptr %3) local_unnamed_addr #0 align 2 personality ptr @__gxx_personality_v0 {
  %5 = alloca %"class.std::vector", align 8
  call void @llvm.lifetime.start.p0(i64 24, ptr nonnull %5) #18
  call void @_ZN12cmCryptoHash14ByteHashStringESt17basic_string_viewIcSt11char_traitsIcEE(ptr dead_on_unwind nonnull writable sret(%"class.std::vector") align 8 %5, ptr noundef nonnull align 8 dereferenceable(16) %1, i64 %2, ptr %3)
  invoke void @_ZN12cmCryptoHash16ByteHashToStringB5cxx11ERKSt6vectorIhSaIhEE(ptr dead_on_unwind writable sret(%"class.std::__cxx11::basic_string") align 8 %0, ptr noundef nonnull align 8 dereferenceable(24) %5)
          to label %6 unwind label %14

6:                                                ; preds = %4
  %7 = load ptr, ptr %5, align 8, !tbaa !44
  %.not.i.i.i = icmp eq ptr %7, null
  br i1 %.not.i.i.i, label %_ZNSt6vectorIhSaIhEED2Ev.exit, label %8

8:                                                ; preds = %6
  %9 = getelementptr inbounds nuw i8, ptr %5, i64 16
  %10 = load ptr, ptr %9, align 8, !tbaa !50
  %11 = ptrtoint ptr %10 to i64
  %12 = ptrtoint ptr %7 to i64
  %13 = sub i64 %11, %12
  tail call void @_ZdlPvm(ptr noundef nonnull %7, i64 noundef %13) #20
  br label %_ZNSt6vectorIhSaIhEED2Ev.exit

_ZNSt6vectorIhSaIhEED2Ev.exit:                    ; preds = %6, %8
  call void @llvm.lifetime.end.p0(i64 24, ptr nonnull %5) #18
  ret void

14:                                               ; preds = %4
  %15 = landingpad { ptr, i32 }
          cleanup
  %16 = load ptr, ptr %5, align 8, !tbaa !44
  %.not.i.i.i4 = icmp eq ptr %16, null
  br i1 %.not.i.i.i4, label %_ZNSt6vectorIhSaIhEED2Ev.exit5, label %17

17:                                               ; preds = %14
  %18 = getelementptr inbounds nuw i8, ptr %5, i64 16
  %19 = load ptr, ptr %18, align 8, !tbaa !50
  %20 = ptrtoint ptr %19 to i64
  %21 = ptrtoint ptr %16 to i64
  %22 = sub i64 %20, %21
  tail call void @_ZdlPvm(ptr noundef nonnull %16, i64 noundef %22) #20
  br label %_ZNSt6vectorIhSaIhEED2Ev.exit5

_ZNSt6vectorIhSaIhEED2Ev.exit5:                   ; preds = %14, %17
  call void @llvm.lifetime.end.p0(i64 24, ptr nonnull %5) #18
  resume { ptr, i32 } %15
}